; Function Attrs: mustprogress nofree norecurse nosync nounwind willreturn memory(argmem: readwrite) uwtable
define void @_ZN32pxrInternal_v0_24__pxrReserved__9GfRange2dC2ERKNS_9GfRange2fE(ptr nocapture noundef nonnull writeonly align 8 dereferenceable(32) %0, ptr nocapture noundef nonnull readonly align 4 dereferenceable(16) %1) unnamed_addr #2 align 2 {
  %3 = load float, ptr %1, align 4
  %4 = fpext float %3 to double
  store double %4, ptr %0, align 8
  %5 = getelementptr inbounds i8, ptr %1, i64 4
  %6 = load float, ptr %5, align 4
  %7 = fpext float %6 to double
  %8 = getelementptr inbounds i8, ptr %0, i64 8
  store double %7, ptr %8, align 8
  %9 = getelementptr inbounds nuw i8, ptr %0, i64 16
  %10 = getelementptr inbounds nuw i8, ptr %1, i64 8
  %11 = load float, ptr %10, align 4
  %12 = fpext float %11 to double
  store double %12, ptr %9, align 8
  %13 = getelementptr inbounds i8, ptr %1, i64 12
  %14 = load float, ptr %13, align 4
  %15 = fpext float %14 to double
  %16 = getelementptr inbounds i8, ptr %0, i64 24
  store double %15, ptr %16, align 8
  ret void
}